target datalayout = "e-m:e-p270:32:32-p271:32:32-p272:64:64-i64:64-i128:128-f80:128-n8:16:32:64-S128"
target triple = "x86_64-pc-linux-gnu"

%class.b3FillCL = type { ptr, ptr, ptr, ptr, ptr, ptr }

@_ZTV8b3FillCL = dso_local unnamed_addr constant { [4 x ptr] } { [4 x ptr] [ptr null, ptr @_ZTI8b3FillCL, ptr @_ZN8b3FillCLD1Ev, ptr @_ZN8b3FillCLD0Ev] }, align 8
@__clewReleaseKernel = external global ptr, align 8

; Function Attrs: mustprogress nounwind uwtable
define dso_local void @_ZN8b3FillCLD2Ev(ptr noundef nonnull align 8 dereferenceable(48) %0) unnamed_addr #3 align 2 personality ptr @__gxx_personality_v0 {
  %2 = alloca ptr, align 8
  store ptr %0, ptr %2, align 8, !tbaa !4
  %3 = load ptr, ptr %2, align 8
  store ptr getelementptr inbounds inrange(-16, 16) ({ [4 x ptr] }, ptr @_ZTV8b3FillCL, i32 0, i32 0, i32 2), ptr %3, align 8, !tbaa !15
  %4 = load ptr, ptr @__clewReleaseKernel, align 8, !tbaa !34
  %5 = getelementptr inbounds nuw %class.b3FillCL, ptr %3, i32 0, i32 2
  %6 = load ptr, ptr %5, align 8, !tbaa !27
  %7 = invoke i32 %4(ptr noundef %6)
          to label %8 unwind label %24

8:                                                ; preds = %1
  %9 = load ptr, ptr @__clewReleaseKernel, align 8, !tbaa !34
  %10 = getelementptr inbounds nuw %class.b3FillCL, ptr %3, i32 0, i32 3
  %11 = load ptr, ptr %10, align 8, !tbaa !24
  %12 = invoke i32 %9(ptr noundef %11)
          to label %13 unwind label %24

13:                                               ; preds = %8
  %14 = load ptr, ptr @__clewReleaseKernel, align 8, !tbaa !34
  %15 = getelementptr inbounds nuw %class.b3FillCL, ptr %3, i32 0, i32 4
  %16 = load ptr, ptr %15, align 8, !tbaa !25
  %17 = invoke i32 %14(ptr noundef %16)
          to label %18 unwind label %24

18:                                               ; preds = %13
  %19 = load ptr, ptr @__clewReleaseKernel, align 8, !tbaa !34
  %20 = getelementptr inbounds nuw %class.b3FillCL, ptr %3, i32 0, i32 5
  %21 = load ptr, ptr %20, align 8, !tbaa !26
  %22 = invoke i32 %19(ptr noundef %21)
          to label %23 unwind label %24

23:                                               ; preds = %18
  ret void

24:                                               ; preds = %18, %13, %8, %1
  %25 = landingpad { ptr, i32 }
          catch ptr null
  %26 = extractvalue { ptr, i32 } %25, 0
  call void @__clang_call_terminate(ptr %26) #11
  unreachable
}