; Function Attrs: mustprogress nounwind uwtable
define dso_local void @_ZN8b3FillCLD2Ev(ptr noundef nonnull align 8 captures(none) dereferenceable(48) initializes((0, 8)) %0) unnamed_addr #2 align 2 personality ptr @__gxx_personality_v0 {
  store ptr getelementptr inbounds nuw inrange(-16, 16) (i8, ptr @_ZTV8b3FillCL, i64 16), ptr %0, align 8, !tbaa !4
  %2 = load ptr, ptr @__clewReleaseKernel, align 8, !tbaa !17
  %3 = getelementptr inbounds nuw i8, ptr %0, i64 16
  %4 = load ptr, ptr %3, align 8, !tbaa !16
  %5 = invoke i32 %2(ptr noundef %4)
          to label %6 unwind label %22

6:                                                ; preds = %1
  %7 = load ptr, ptr @__clewReleaseKernel, align 8, !tbaa !17
  %8 = getelementptr inbounds nuw i8, ptr %0, i64 24
  %9 = load ptr, ptr %8, align 8, !tbaa !13
  %10 = invoke i32 %7(ptr noundef %9)
          to label %11 unwind label %22

11:                                               ; preds = %6
  %12 = load ptr, ptr @__clewReleaseKernel, align 8, !tbaa !17
  %13 = getelementptr inbounds nuw i8, ptr %0, i64 32
  %14 = load ptr, ptr %13, align 8, !tbaa !14
  %15 = invoke i32 %12(ptr noundef %14)
          to label %16 unwind label %22

16:                                               ; preds = %11
  %17 = load ptr, ptr @__clewReleaseKernel, align 8, !tbaa !17
  %18 = getelementptr inbounds nuw i8, ptr %0, i64 40
  %19 = load ptr, ptr %18, align 8, !tbaa !15
  %20 = invoke i32 %17(ptr noundef %19)
          to label %21 unwind label %22

21:                                               ; preds = %16
  ret void

22:                                               ; preds = %16, %11, %6, %1
  %23 = landingpad { ptr, i32 }
          catch ptr null
  %24 = extractvalue { ptr, i32 } %23, 0
  tail call void @__clang_call_terminate(ptr %24) #13
  unreachable
}